(lp1
(lp2
V27
p3
aV28
p4
aV29
p5
aV30
p6
aV31
p7
aV32
p8
aV33
p9
aV34
p10
aV35
p11
aV36
p12
aV37
p13
aV38
p14
aV39
p15
aV40
p16
aV41
p17
aV42
p18
aV43
p19
aV44
p20
aV45
p21
aV46
p22
aV47
p23
aV48
p24
aV49
p25
aV50
p26
aV51
p27
aV52
p28
aV53
p29
aV54
p30
aV55
p31
aV56
p32
aV57
p33
aV58
p34
aV59
p35
aV00
p36
aV01
p37
aV02
p38
aV03
p39
aV04
p40
aV05
p41
aV06
p42
aV07
p43
aV08
p44
aV09
p45
aV10
p46
aV11
p47
aV12
p48
aV13
p49
aV14
p50
aV15
p51
aV16
p52
aV17
p53
aV18
p54
aV19
p55
aV20
p56
aV21
p57
aV22
p58
aV23
p59
aV24
p60
aV25
p61
aV26
p62
aV27
p63
aV28
p64
aV29
p65
aV30
p66
aV31
p67
aV32
p68
aV33
p69
aV34
p70
aV35
p71
aV36
p72
aV37
p73
aV38
p74
aV39
p75
aV40
p76
aV41
p77
aV42
p78
aV43
p79
aV44
p80
aV45
p81
aV46
p82
aV47
p83
aV48
p84
aV49
p85
aV50
p86
aV51
p87
aV52
p88
aV53
p89
aV54
p90
aV55
p91
aV56
p92
aV57
p93
aV58
p94
aV59
p95
aV00
p96
aV01
p97
aV02
p98
aV03
p99
aV04
p100
aV05
p101
aV06
p102
aV07
p103
aV08
p104
aV09
p105
aV10
p106
aV11
p107
aV12
p108
aV13
p109
aV14
p110
aV15
p111
aV16
p112
aV17
p113
aV18
p114
aV19
p115
aV20
p116
aV21
p117
aV22
p118
aV23
p119
aV24
p120
aV25
p121
aV26
p122
aV27
p123
aV28
p124
aV29
p125
aV30
p126
aV31
p127
aV32
p128
aV33
p129
aV34
p130
aV35
p131
aV36
p132
aV37
p133
aV38
p134
aV39
p135
aV40
p136
aV41
p137
aV42
p138
aV43
p139
aV44
p140
aV45
p141
aV46
p142
aV47
p143
aV48
p144
aV49
p145
aV50
p146
aV51
p147
aV52
p148
aV53
p149
aV54
p150
aV55
p151
aV56
p152
aV57
p153
aV58
p154
aV59
p155
aV00
p156
aV01
p157
aV02
p158
aV03
p159
aV04
p160
aV05
p161
aV06
p162
aV07
p163
aV08
p164
aV09
p165
aV10
p166
aV11
p167
aV12
p168
aV13
p169
aV14
p170
aV15
p171
aV16
p172
aV17
p173
aV18
p174
aV19
p175
aV20
p176
aV21
p177
aV22
p178
aV23
p179
aV24
p180
aV16
p181
aV17
p182
aV18
p183
aV19
p184
aV20
p185
aV21
p186
aV22
p187
aa(lp188
I8
aI21
aI22
aI26
aI15
aI29
aI22
aI23
aI26
aI28
aI13
aI21
aI20
aI21
aI20
aI16
aI19
aI25
aI26
aI25
aI19
aI27
aI26
aI20
aI20
aI23
aI21
aI23
aI21
aI18
aI17
aI25
aI18
aI18
aI24
aI27
aI26
aI24
aI32
aI24
aI23
aI22
aI29
aI26
aI25
aI17
aI17
aI28
aI21
aI22
aI23
aI20
aI17
aI23
aI27
aI20
aI19
aI19
aI19
aI19
aI13
aI23
aI24
aI25
aI30
aI25
aI24
aI31
aI22
aI20
aI33
aI24
aI27
aI30
aI28
aI27
aI26
aI26
aI33
aI21
aI26
aI29
aI28
aI29
aI31
aI27
aI25
aI21
aI26
aI34
aI29
aI44
aI21
aI24
aI27
aI21
aI33
aI31
aI23
aI27
aI34
aI38
aI30
aI30
aI36
aI31
aI35
aI27
aI27
aI24
aI18
aI35
aI30
aI25
aI38
aI23
aI28
aI30
aI29
aI22
aI21
aI28
aI21
aI37
aI26
aI27
aI31
aI33
aI40
aI34
aI31
aI31
aI24
aI30
aI23
aI25
aI33
aI37
aI38
aI24
aI33
aI30
aI33
aI37
aI29
aI37
aI39
aI26
aI32
aI31
aI40
aI26
aI23
aI29
aI36
aI30
aI28
aI36
aI23
aI29
aI38
aI38
aI33
aI30
aI38
aI35
aI32
aI35
aI24
aI37
aI33
aI31
aI25
aI27
aI33
aI32
aI27
aI32
aI10
aI34
aI25
aI40
aI38
aI35
aI32
aa.